; Function Attrs: mustprogress uwtable
define dso_local noundef i32 @_ZNK3net17QuicNegotiableTag10ReadVectorERKNS_22CryptoHandshakeMessageEPPKjPmPNSt7__cxx1112basic_stringIcSt11char_traitsIcESaIcEEE(ptr noundef nonnull align 8 dereferenceable(52) %this, ptr noundef nonnull align 8 dereferenceable(72) %msg, ptr noundef %out, ptr noundef %out_length, ptr noundef %error_details) local_unnamed_addr #0 align 2 personality ptr @__gxx_personality_v0 {
entry:
  %ref.tmp = alloca %"class.std::__cxx11::basic_string", align 8
  %ref.tmp2 = alloca %"class.std::__cxx11::basic_string", align 8
  %ref.tmp6 = alloca %"class.std::__cxx11::basic_string", align 8
  %ref.tmp7 = alloca %"class.std::__cxx11::basic_string", align 8
  %tag_ = getelementptr inbounds i8, ptr %this, i64 8
  %0 = load i32, ptr %tag_, align 8
  %call = tail call noundef i32 @_ZNK3net22CryptoHandshakeMessage10GetTaglistEjPPKjPm(ptr noundef nonnull align 8 dereferenceable(72) %msg, i32 noundef %0, ptr noundef %out, ptr noundef %out_length)
  switch i32 %call, label %sw.default [
    i32 35, label %sw.bb
    i32 0, label %sw.epilog
  ]

sw.bb:                                            ; preds = %entry
  %presence_ = getelementptr inbounds i8, ptr %this, i64 12
  %1 = load i32, ptr %presence_, align 4
  %cmp = icmp eq i32 %1, 1
  br i1 %cmp, label %if.then, label %if.end

if.then:                                          ; preds = %sw.bb
  %2 = load i32, ptr %tag_, align 8
  call void @_ZN3net9QuicUtils11TagToStringB5cxx11Ej(ptr nonnull sret(%"class.std::__cxx11::basic_string") align 8 %ref.tmp2, i32 noundef %2)
  %call.i6 = invoke noundef nonnull align 8 dereferenceable(32) ptr @_ZNSt7__cxx1112basic_stringIcSt11char_traitsIcESaIcEE6insertEmPKc(ptr noundef nonnull align 8 dereferenceable(32) %ref.tmp2, i64 noundef 0, ptr noundef nonnull @.str)
          to label %invoke.cont unwind label %lpad

invoke.cont:                                      ; preds = %if.then
  call void @_ZNSt7__cxx1112basic_stringIcSt11char_traitsIcESaIcEEC1EOS4_(ptr noundef nonnull align 8 dereferenceable(32) %ref.tmp, ptr noundef nonnull align 8 dereferenceable(32) %call.i6) #17
  %call4 = call noundef nonnull align 8 dereferenceable(32) ptr @_ZNSt7__cxx1112basic_stringIcSt11char_traitsIcESaIcEEaSEOS4_(ptr noundef nonnull align 8 dereferenceable(32) %error_details, ptr noundef nonnull align 8 dereferenceable(32) %ref.tmp) #17
  call void @_ZNSt7__cxx1112basic_stringIcSt11char_traitsIcESaIcEED1Ev(ptr noundef nonnull align 8 dereferenceable(32) %ref.tmp) #17
  call void @_ZNSt7__cxx1112basic_stringIcSt11char_traitsIcESaIcEED1Ev(ptr noundef nonnull align 8 dereferenceable(32) %ref.tmp2) #17
  br label %sw.epilog

lpad:                                             ; preds = %if.then
  %3 = landingpad { ptr, i32 }
          cleanup
  br label %eh.resume

if.end:                                           ; preds = %sw.bb
  store i64 1, ptr %out_length, align 8
  %default_value_ = getelementptr inbounds i8, ptr %this, i64 48
  store ptr %default_value_, ptr %out, align 8
  br label %sw.epilog

sw.default:                                       ; preds = %entry
  %4 = load i32, ptr %tag_, align 8
  call void @_ZN3net9QuicUtils11TagToStringB5cxx11Ej(ptr nonnull sret(%"class.std::__cxx11::basic_string") align 8 %ref.tmp7, i32 noundef %4)
  %call.i7 = invoke noundef nonnull align 8 dereferenceable(32) ptr @_ZNSt7__cxx1112basic_stringIcSt11char_traitsIcESaIcEE6insertEmPKc(ptr noundef nonnull align 8 dereferenceable(32) %ref.tmp7, i64 noundef 0, ptr noundef nonnull @.str.1)
          to label %invoke.cont10 unwind label %lpad9

invoke.cont10:                                    ; preds = %sw.default
  call void @_ZNSt7__cxx1112basic_stringIcSt11char_traitsIcESaIcEEC1EOS4_(ptr noundef nonnull align 8 dereferenceable(32) %ref.tmp6, ptr noundef nonnull align 8 dereferenceable(32) %call.i7) #17
  %call11 = call noundef nonnull align 8 dereferenceable(32) ptr @_ZNSt7__cxx1112basic_stringIcSt11char_traitsIcESaIcEEaSEOS4_(ptr noundef nonnull align 8 dereferenceable(32) %error_details, ptr noundef nonnull align 8 dereferenceable(32) %ref.tmp6) #17
  call void @_ZNSt7__cxx1112basic_stringIcSt11char_traitsIcESaIcEED1Ev(ptr noundef nonnull align 8 dereferenceable(32) %ref.tmp6) #17
  call void @_ZNSt7__cxx1112basic_stringIcSt11char_traitsIcESaIcEED1Ev(ptr noundef nonnull align 8 dereferenceable(32) %ref.tmp7) #17
  br label %sw.epilog

lpad9:                                            ; preds = %sw.default
  %5 = landingpad { ptr, i32 }
          cleanup
  br label %eh.resume

sw.epilog:                                        ; preds = %entry, %if.end, %invoke.cont10, %invoke.cont
  %error.0 = phi i32 [ %call, %invoke.cont10 ], [ %call, %entry ], [ 35, %invoke.cont ], [ 0, %if.end ]
  ret i32 %error.0

eh.resume:                                        ; preds = %lpad9, %lpad
  %ref.tmp7.sink = phi ptr [ %ref.tmp7, %lpad9 ], [ %ref.tmp2, %lpad ]
  %.pn = phi { ptr, i32 } [ %5, %lpad9 ], [ %3, %lpad ]
  call void @_ZNSt7__cxx1112basic_stringIcSt11char_traitsIcESaIcEED1Ev(ptr noundef nonnull align 8 dereferenceable(32) %ref.tmp7.sink) #17
  resume { ptr, i32 } %.pn
}